(dp1
I4000
(lp2
I44
aI170
aI242
aI222
aI111
asI1000
(lp3
I162
aI246
aI230
aI9
aI130
asI9000
(lp4
I238
aI160
aI252
aI128
aI55
asI2000
(lp5
I134
aI234
aI185
aI178
aI237
asI5000
(lp6
I227
aI61
aI35
aI72
aI121
asI7000
(lp7
I152
aI250
aI12
aI249
aI42
asI3000
(lp8
I34
aI75
aI197
aI112
aI54
asS'day'
p9
I16524
s.