(dp1
I4000
(lp2
I236
aI34
aI250
aI67
aI13
asI1000
(lp3
I17
aI118
aI99
aI16
aI29
asI9000
(lp4
I222
aI104
aI121
aI59
aI93
asI2000
(lp5
I86
aI139
aI161
aI64
aI194
asI5000
(lp6
I41
aI130
aI85
aI100
aI251
asI3000
(lp7
I157
aI215
aI208
aI242
aI207
asS'day'
p8
I16579
s.