(dp1
I4000
(lp2
I8
aI25
aI166
aI149
aI59
asI1000
(lp3
I20
aI156
aI148
aI67
aI107
asI9000
(lp4
I144
aI49
aI71
aI198
aI134
asI2000
(lp5
I145
aI195
aI42
aI10
aI65
asI5000
(lp6
I238
aI37
aI127
aI207
aI232
asI7000
(lp7
I183
aI112
aI190
aI222
aI14
asI3000
(lp8
I80
aI160
aI214
aI38
aI241
asS'day'
p9
I16526
s.