(dp1
I4000
(lp2
I11
aI177
aI238
aI152
aI89
asI1000
(lp3
I123
aI161
aI145
aI138
aI122
asI9000
(lp4
I66
aI201
aI27
aI102
aI185
asI2000
(lp5
I135
aI20
aI54
aI240
aI147
asI5000
(lp6
I129
aI194
aI222
aI92
aI37
asI3000
(lp7
I166
aI114
aI70
aI144
aI30
asS'day'
p8
I16523
s.